Certificate:
    Data:
        Version: 3 (0x2)
        Serial Number:
            43:9d:32:d3:42:a6:17:c0:70:0c:c0:9a:08:08:3a:79:c0:fc:00:e2
        Signature Algorithm: sha256WithRSAEncryption
        Issuer: CN = ucab.sqa.workit
        Validity
            Not Before: Jan 10 07:36:17 2022 GMT
            Not After : Jan 10 07:36:17 2023 GMT
        Subject: CN = ucab.sqa.workit
        Subject Public Key Info:
            Public Key Algorithm: rsaEncryption
                Public-Key: (2048 bit)
                Modulus:
                    00:a9:7a:e3:f7:dd:91:35:42:5f:5a:0d:02:d4:96:
                    16:00:b8:02:53:c7:da:8e:88:6a:a3:dd:18:b1:93:
                    f8:79:d2:bb:d3:38:b2:8c:74:05:0c:fa:e4:da:6d:
                    17:eb:84:f6:1a:25:13:15:da:78:99:ff:42:32:1f:
                    14:b9:19:cc:46:2f:72:21:5a:9b:8e:4a:58:a7:5c:
                    89:c8:81:72:01:b3:97:fc:53:60:81:0a:3b:84:ef:
                    a7:ec:e1:c9:6c:27:bc:30:85:49:51:ec:2c:4b:2f:
                    bb:cf:9e:8d:f2:74:45:23:69:22:83:4e:55:2a:eb:
                    1a:9a:e7:e6:b6:6b:1f:be:69:43:4a:8a:95:23:5f:
                    80:e3:cc:fe:05:0c:4b:29:d4:84:ce:2e:67:e7:b3:
                    22:a3:ad:62:23:a2:a9:19:29:7a:38:df:4d:29:98:
                    b5:eb:4b:25:24:92:4f:24:45:95:3c:76:f5:af:b6:
                    51:0a:93:f5:01:6c:cd:6a:ac:35:41:d6:43:6d:26:
                    e1:cd:a6:ff:d0:db:43:b0:33:d7:cc:ea:f9:e2:76:
                    fe:59:6c:d9:34:95:93:88:48:94:46:12:45:10:c7:
                    42:b6:b1:bd:f8:fd:d7:6a:62:7c:35:e0:5c:19:a5:
                    75:7b:25:52:1e:94:95:97:86:5c:73:b0:40:4e:94:
                    7a:af
                Exponent: 65537 (0x10001)
        X509v3 extensions:
            X509v3 Subject Key Identifier: 
                E1:AF:21:7E:36:4E:CE:77:B3:59:BB:F8:CF:87:B0:3F:1B:F9:13:03
            X509v3 Authority Key Identifier: 
                E1:AF:21:7E:36:4E:CE:77:B3:59:BB:F8:CF:87:B0:3F:1B:F9:13:03
            X509v3 Basic Constraints: critical
                CA:TRUE
    Signature Algorithm: sha256WithRSAEncryption
    Signature Value:
        62:98:71:9b:7d:b2:fd:6c:87:ea:b1:76:a4:d8:06:b1:be:f5:
        dc:6e:6a:b9:24:54:74:e2:a7:b3:4a:be:36:e7:33:91:f3:4b:
        e1:32:d6:bb:82:2d:05:0f:75:13:f3:c2:cc:eb:fc:a9:de:ab:
        d5:6d:9a:63:a6:16:4e:0d:8a:08:44:35:db:7a:d9:2b:4a:56:
        f4:cf:d5:a7:c5:2e:78:ad:8e:12:74:60:88:db:af:70:d5:62:
        40:b7:05:a3:69:67:bc:a7:81:e2:63:c0:50:85:b5:96:5e:73:
        ce:c8:1f:2d:a4:0e:93:0b:d6:4e:3b:14:18:e7:96:50:9e:fe:
        27:f7:4a:6e:50:39:c6:cb:3e:82:cf:fa:fe:a4:33:3c:ec:5b:
        b4:6d:7a:ed:b3:a9:3f:86:ce:26:e1:0b:46:5c:42:c9:1a:ed:
        00:f0:bb:9a:36:67:81:bd:10:d4:7a:39:10:a1:54:ea:70:2f:
        e3:f7:87:16:12:0a:87:b0:05:85:06:62:98:8c:63:6a:e0:de:
        68:3f:fd:e3:6b:05:40:e2:1c:fe:42:2d:90:72:2a:d7:04:b7:
        6f:89:c6:94:f1:87:97:f3:40:b1:e9:93:ba:e3:36:de:db:ad:
        18:c4:9c:d6:48:07:f7:fc:2b:08:b2:0d:4f:c1:70:6b:ba:45:
        e0:3b:ae:91
-----BEGIN CERTIFICATE-----
MIIDFTCCAf2gAwIBAgIUQ50y00KmF8BwDMCaCAg6ecD8AOIwDQYJKoZIhvcNAQEL
BQAwGjEYMBYGA1UEAwwPdWNhYi5zcWEud29ya2l0MB4XDTIyMDExMDA3MzYxN1oX
DTIzMDExMDA3MzYxN1owGjEYMBYGA1UEAwwPdWNhYi5zcWEud29ya2l0MIIBIjAN
BgkqhkiG9w0BAQEFAAOCAQ8AMIIBCgKCAQEAqXrj992RNUJfWg0C1JYWALgCU8fa
johqo90YsZP4edK70ziyjHQFDPrk2m0X64T2GiUTFdp4mf9CMh8UuRnMRi9yIVqb
jkpYp1yJyIFyAbOX/FNggQo7hO+n7OHJbCe8MIVJUewsSy+7z56N8nRFI2kig05V
KusamufmtmsfvmlDSoqVI1+A48z+BQxLKdSEzi5n57Mio61iI6KpGSl6ON9NKZi1
60slJJJPJEWVPHb1r7ZRCpP1AWzNaqw1QdZDbSbhzab/0NtDsDPXzOr54nb+WWzZ
NJWTiEiURhJFEMdCtrG9+P3XamJ8NeBcGaV1eyVSHpSVl4Zcc7BATpR6rwIDAQAB
o1MwUTAdBgNVHQ4EFgQU4a8hfjZOznezWbv4z4ewPxv5EwMwHwYDVR0jBBgwFoAU
4a8hfjZOznezWbv4z4ewPxv5EwMwDwYDVR0TAQH/BAUwAwEB/zANBgkqhkiG9w0B
AQsFAAOCAQEAYphxm32y/WyH6rF2pNgGsb713G5quSRUdOKns0q+NuczkfNL4TLW
u4ItBQ91E/PCzOv8qd6r1W2aY6YWTg2KCEQ123rZK0pW9M/Vp8UueK2OEnRgiNuv
cNViQLcFo2lnvKeB4mPAUIW1ll5zzsgfLaQOkwvWTjsUGOeWUJ7+J/dKblA5xss+
gs/6/qQzPOxbtG167bOpP4bOJuELRlxCyRrtAPC7mjZngb0Q1Ho5EKFU6nAv4/eH
FhIKh7AFhQZimIxjauDeaD/942sFQOIc/kItkHIq1wS3b4nGlPGHl/NAsemTuuM2
3tutGMSc1kgH9/wrCLINT8Fwa7pF4DuukQ==
-----END CERTIFICATE-----
